target datalayout = "e-m:e-p270:32:32-p271:32:32-p272:64:64-i64:64-i128:128-f80:128-n8:16:32:64-S128"
target triple = "x86_64-pc-linux-gnu"

%struct.VVCFrame = type { ptr, ptr, ptr, ptr, ptr, ptr, i32, i32, i32, %struct.VVCWindow, i32, i32, ptr, ptr, i16, i8, ptr }
%struct.VVCWindow = type { i16, i16, i16, i16 }
%struct.FrameProgress = type { [2 x i32], [2 x ptr], %union.pthread_mutex_t, %union.pthread_cond_t, i8, i8 }
%union.pthread_mutex_t = type { %struct.__pthread_mutex_s }
%struct.__pthread_mutex_s = type { i32, i32, i32, i32, i32, i16, i16, %struct.__pthread_internal_list }
%struct.__pthread_internal_list = type { ptr, ptr }
%union.pthread_cond_t = type { %struct.__pthread_cond_s }
%struct.__pthread_cond_s = type { %union.__atomic_wide_counter, %union.__atomic_wide_counter, [2 x i32], [2 x i32], i32, i32, [2 x i32] }
%union.__atomic_wide_counter = type { i64 }
%struct.VVCProgressListener = type { i32, i32, ptr, ptr }

; Function Attrs: nounwind uwtable
define internal void @add_listener(ptr noundef %0, ptr noundef %1) #0 {
  %3 = alloca ptr, align 8
  %4 = alloca ptr, align 8
  store ptr %0, ptr %3, align 8, !tbaa !255
  store ptr %1, ptr %4, align 8, !tbaa !249
  %5 = load ptr, ptr %3, align 8, !tbaa !255
  %6 = load ptr, ptr %5, align 8, !tbaa !249
  %7 = load ptr, ptr %4, align 8, !tbaa !249
  %8 = getelementptr inbounds nuw %struct.VVCProgressListener, ptr %7, i32 0, i32 3
  store ptr %6, ptr %8, align 8, !tbaa !253
  %9 = load ptr, ptr %4, align 8, !tbaa !249
  %10 = load ptr, ptr %3, align 8, !tbaa !255
  store ptr %9, ptr %10, align 8, !tbaa !249
  ret void
}

; Function Attrs: nounwind uwtable
define internal i32 @is_progress_done(ptr noundef %0, ptr noundef %1) #0 {
  %3 = alloca ptr, align 8
  %4 = alloca ptr, align 8
  store ptr %0, ptr %3, align 8, !tbaa !248
  store ptr %1, ptr %4, align 8, !tbaa !249
  %5 = load ptr, ptr %3, align 8, !tbaa !248
  %6 = getelementptr inbounds nuw %struct.FrameProgress, ptr %5, i32 0, i32 0
  %7 = load ptr, ptr %4, align 8, !tbaa !249
  %8 = getelementptr inbounds nuw %struct.VVCProgressListener, ptr %7, i32 0, i32 0
  %9 = load i32, ptr %8, align 8, !tbaa !258
  %10 = zext i32 %9 to i64
  %11 = getelementptr inbounds nuw [2 x i32], ptr %6, i64 0, i64 %10
  %12 = load atomic i32, ptr %11 seq_cst, align 4, !tbaa !108
  %13 = load ptr, ptr %4, align 8, !tbaa !249
  %14 = getelementptr inbounds nuw %struct.VVCProgressListener, ptr %13, i32 0, i32 1
  %15 = load i32, ptr %14, align 4, !tbaa !259
  %16 = icmp sgt i32 %12, %15
  %17 = zext i1 %16 to i32
  ret i32 %17
}

; Function Attrs: nounwind uwtable
define void @ff_vvc_add_progress_listener(ptr noundef %0, ptr noundef %1) #0 {
  %3 = alloca ptr, align 8
  %4 = alloca ptr, align 8
  %5 = alloca ptr, align 8
  store ptr %0, ptr %3, align 8, !tbaa !9
  store ptr %1, ptr %4, align 8, !tbaa !249
  call void @llvm.lifetime.start.p0(i64 8, ptr %5) #7
  %6 = load ptr, ptr %3, align 8, !tbaa !9
  %7 = getelementptr inbounds nuw %struct.VVCFrame, ptr %6, i32 0, i32 13
  %8 = load ptr, ptr %7, align 8, !tbaa !149
  store ptr %8, ptr %5, align 8, !tbaa !248
  %9 = load ptr, ptr %5, align 8, !tbaa !248
  %10 = getelementptr inbounds nuw %struct.FrameProgress, ptr %9, i32 0, i32 2
  %11 = call i32 @pthread_mutex_lock(ptr noundef %10) #7
  %12 = load ptr, ptr %5, align 8, !tbaa !248
  %13 = load ptr, ptr %4, align 8, !tbaa !249
  %14 = call i32 @is_progress_done(ptr noundef %12, ptr noundef %13)
  %15 = icmp ne i32 %14, 0
  br i1 %15, label %16, label %24

16:                                               ; preds = %2
  %17 = load ptr, ptr %5, align 8, !tbaa !248
  %18 = getelementptr inbounds nuw %struct.FrameProgress, ptr %17, i32 0, i32 2
  %19 = call i32 @pthread_mutex_unlock(ptr noundef %18) #7
  %20 = load ptr, ptr %4, align 8, !tbaa !249
  %21 = getelementptr inbounds nuw %struct.VVCProgressListener, ptr %20, i32 0, i32 2
  %22 = load ptr, ptr %21, align 8, !tbaa !251
  %23 = load ptr, ptr %4, align 8, !tbaa !249
  call void %22(ptr noundef %23)
  br label %37

24:                                               ; preds = %2
  %25 = load ptr, ptr %5, align 8, !tbaa !248
  %26 = getelementptr inbounds nuw %struct.FrameProgress, ptr %25, i32 0, i32 1
  %27 = getelementptr inbounds [2 x ptr], ptr %26, i64 0, i64 0
  %28 = load ptr, ptr %4, align 8, !tbaa !249
  %29 = getelementptr inbounds nuw %struct.VVCProgressListener, ptr %28, i32 0, i32 0
  %30 = load i32, ptr %29, align 8, !tbaa !258
  %31 = zext i32 %30 to i64
  %32 = getelementptr inbounds nuw ptr, ptr %27, i64 %31
  %33 = load ptr, ptr %4, align 8, !tbaa !249
  call void @add_listener(ptr noundef %32, ptr noundef %33)
  %34 = load ptr, ptr %5, align 8, !tbaa !248
  %35 = getelementptr inbounds nuw %struct.FrameProgress, ptr %34, i32 0, i32 2
  %36 = call i32 @pthread_mutex_unlock(ptr noundef %35) #7
  br label %37

37:                                               ; preds = %24, %16
  call void @llvm.lifetime.end.p0(i64 8, ptr %5) #7
  ret void
}