; Function Attrs: nounwind uwtable
define void @ff_vvc_add_progress_listener(ptr noundef readonly captures(none) %0, ptr noundef %1) local_unnamed_addr #0 {
  %3 = getelementptr inbounds nuw i8, ptr %0, i64 88
  %4 = load ptr, ptr %3, align 8, !tbaa !149
  %5 = getelementptr inbounds nuw i8, ptr %4, i64 24
  %6 = tail call i32 @pthread_mutex_lock(ptr noundef nonnull %5) #9
  %7 = load i32, ptr %1, align 8, !tbaa !238
  %8 = zext i32 %7 to i64
  %9 = getelementptr inbounds nuw [2 x i32], ptr %4, i64 0, i64 %8
  %10 = load atomic i32, ptr %9 seq_cst, align 4, !tbaa !118
  %11 = getelementptr inbounds nuw i8, ptr %1, i64 4
  %12 = load i32, ptr %11, align 4, !tbaa !240
  %.not = icmp sgt i32 %10, %12
  br i1 %.not, label %13, label %17

13:                                               ; preds = %2
  %14 = tail call i32 @pthread_mutex_unlock(ptr noundef nonnull %5) #9
  %15 = getelementptr inbounds nuw i8, ptr %1, i64 8
  %16 = load ptr, ptr %15, align 8, !tbaa !243
  tail call void %16(ptr noundef nonnull %1) #9
  br label %25

17:                                               ; preds = %2
  %18 = getelementptr inbounds nuw i8, ptr %4, i64 8
  %19 = load i32, ptr %1, align 8, !tbaa !238
  %20 = zext i32 %19 to i64
  %21 = getelementptr inbounds nuw ptr, ptr %18, i64 %20
  %22 = load ptr, ptr %21, align 8, !tbaa !236
  %23 = getelementptr inbounds nuw i8, ptr %1, i64 16
  store ptr %22, ptr %23, align 8, !tbaa !241
  store ptr %1, ptr %21, align 8, !tbaa !236
  %24 = tail call i32 @pthread_mutex_unlock(ptr noundef nonnull %5) #9
  br label %25

25:                                               ; preds = %17, %13
  ret void
}